; Function Attrs: mustprogress uwtable
define dso_local noundef zeroext i1 @_ZN3net12HpackDecoder23DecodeNextIndexedHeaderEPNS_16HpackInputStreamE(ptr noundef nonnull align 8 dereferenceable(480) %this, ptr noundef nonnull %input_stream) local_unnamed_addr #0 align 2 {
entry:
  %index = alloca i32, align 4
  store i32 0, ptr %index, align 4
  %call = call noundef zeroext i1 @_ZN3net16HpackInputStream16DecodeNextUint32EPj(ptr noundef nonnull align 8 dereferenceable(33) %input_stream, ptr noundef nonnull %index)
  br i1 %call, label %if.end, label %return

if.end:                                           ; preds = %entry
  %header_table_ = getelementptr inbounds i8, ptr %this, i64 8
  %0 = load i32, ptr %index, align 4
  %conv = zext i32 %0 to i64
  %call3 = call noundef ptr @_ZN3net16HpackHeaderTable10GetByIndexEm(ptr noundef nonnull align 8 dereferenceable(256) %header_table_, i64 noundef %conv)
  %cmp = icmp eq ptr %call3, null
  br i1 %cmp, label %return, label %if.end5

if.end5:                                          ; preds = %if.end
  %name_ref_.i = getelementptr inbounds i8, ptr %call3, i64 64
  %retval.sroa.0.0.copyload.i = load ptr, ptr %name_ref_.i, align 8
  %retval.sroa.2.0.name_ref_.sroa_idx.i = getelementptr inbounds i8, ptr %call3, i64 72
  %retval.sroa.2.0.copyload.i = load i64, ptr %retval.sroa.2.0.name_ref_.sroa_idx.i, align 8
  %value_ref_.i = getelementptr inbounds i8, ptr %call3, i64 80
  %retval.sroa.0.0.copyload.i3 = load ptr, ptr %value_ref_.i, align 8
  %retval.sroa.2.0.value_ref_.sroa_idx.i = getelementptr inbounds i8, ptr %call3, i64 88
  %retval.sroa.2.0.copyload.i4 = load i64, ptr %retval.sroa.2.0.value_ref_.sroa_idx.i, align 8
  %call9 = call noundef zeroext i1 @_ZN3net12HpackDecoder26HandleHeaderRepresentationEN4base16BasicStringPieceINSt7__cxx1112basic_stringIcSt11char_traitsIcESaIcEEEEES9_(ptr noundef nonnull align 8 dereferenceable(480) %this, ptr %retval.sroa.0.0.copyload.i, i64 %retval.sroa.2.0.copyload.i, ptr %retval.sroa.0.0.copyload.i3, i64 %retval.sroa.2.0.copyload.i4)
  br label %return

return:                                           ; preds = %if.end, %entry, %if.end5
  %retval.0 = phi i1 [ true, %if.end5 ], [ false, %entry ], [ false, %if.end ]
  ret i1 %retval.0
}